target datalayout = "e-m:e-p270:32:32-p271:32:32-p272:64:64-i64:64-i128:128-f80:128-n8:16:32:64-S128"
target triple = "x86_64-unknown-linux-gnu"

%"class.icu_75::RuleBasedBreakIterator" = type <{ %"class.icu_75::BreakIterator.base", i8, %struct.UText, ptr, i32, i32, i32, [4 x i8], ptr, ptr, ptr, ptr, i32, [4 x i8], ptr, %"class.icu_75::UCharCharacterIterator", i8, [7 x i8], ptr, i8, [7 x i8] }>
%"class.icu_75::BreakIterator.base" = type <{ %"class.icu_75::UObject", [157 x i8], [157 x i8], [157 x i8] }>
%"class.icu_75::UObject" = type { ptr }
%struct.UText = type { i32, i32, i32, i32, i64, i32, i32, i64, i32, i32, ptr, ptr, ptr, ptr, ptr, ptr, ptr, ptr, i64, i32, i32, i64, i32, i32 }
%"class.icu_75::UCharCharacterIterator" = type { %"class.icu_75::CharacterIterator", ptr }
%"class.icu_75::CharacterIterator" = type { %"class.icu_75::ForwardCharacterIterator", i32, i32, i32, i32 }
%"class.icu_75::ForwardCharacterIterator" = type { %"class.icu_75::UObject" }
%"class.icu_75::RBBIDataWrapper" = type <{ ptr, ptr, ptr, ptr, ptr, i32, [4 x i8], ptr, %"struct.std::atomic", [4 x i8], ptr, %"class.icu_75::UnicodeString", i8, [7 x i8] }>
%"struct.std::atomic" = type { %"struct.std::__atomic_base" }
%"struct.std::__atomic_base" = type { i32 }
%"class.icu_75::UnicodeString" = type { %"class.icu_75::Replaceable", %"union.icu_75::UnicodeString::StackBufferOrFields" }
%"class.icu_75::Replaceable" = type { %"class.icu_75::UObject" }
%"union.icu_75::UnicodeString::StackBufferOrFields" = type { %struct.anon.0, [32 x i8] }
%struct.anon.0 = type { i16, i32, i32, ptr }
%"struct.icu_75::RBBIDataHeader" = type { i32, [4 x i8], i32, i32, i32, i32, i32, i32, i32, i32, i32, i32, i32, i32, [6 x i32] }

; Function Attrs: mustprogress nounwind uwtable
define noundef ptr @_ZN6icu_7522RuleBasedBreakIterator14getBinaryRulesERj(ptr noundef nonnull align 8 dereferenceable(745) %this, ptr noundef nonnull align 4 dereferenceable(4) %length) unnamed_addr #0 align 2 {
entry:
  %this.addr = alloca ptr, align 8
  %length.addr = alloca ptr, align 8
  %retPtr = alloca ptr, align 8
  store ptr %this, ptr %this.addr, align 8
  store ptr %length, ptr %length.addr, align 8
  %this1 = load ptr, ptr %this.addr, align 8
  store ptr null, ptr %retPtr, align 8
  %0 = load ptr, ptr %length.addr, align 8
  store i32 0, ptr %0, align 4
  %fData = getelementptr inbounds %"class.icu_75::RuleBasedBreakIterator", ptr %this1, i32 0, i32 3
  %1 = load ptr, ptr %fData, align 8
  %cmp = icmp ne ptr %1, null
  br i1 %cmp, label %if.then, label %if.end

if.then:                                          ; preds = %entry
  %fData2 = getelementptr inbounds %"class.icu_75::RuleBasedBreakIterator", ptr %this1, i32 0, i32 3
  %2 = load ptr, ptr %fData2, align 8
  %fHeader = getelementptr inbounds %"class.icu_75::RBBIDataWrapper", ptr %2, i32 0, i32 0
  %3 = load ptr, ptr %fHeader, align 8
  store ptr %3, ptr %retPtr, align 8
  %fData3 = getelementptr inbounds %"class.icu_75::RuleBasedBreakIterator", ptr %this1, i32 0, i32 3
  %4 = load ptr, ptr %fData3, align 8
  %fHeader4 = getelementptr inbounds %"class.icu_75::RBBIDataWrapper", ptr %4, i32 0, i32 0
  %5 = load ptr, ptr %fHeader4, align 8
  %fLength = getelementptr inbounds %"struct.icu_75::RBBIDataHeader", ptr %5, i32 0, i32 2
  %6 = load i32, ptr %fLength, align 4
  %7 = load ptr, ptr %length.addr, align 8
  store i32 %6, ptr %7, align 4
  br label %if.end

if.end:                                           ; preds = %if.then, %entry
  %8 = load ptr, ptr %retPtr, align 8
  ret ptr %8
}