; Function Attrs: mustprogress nofree norecurse nosync nounwind willreturn memory(read, argmem: readwrite, inaccessiblemem: none) uwtable
define noundef ptr @_ZN6icu_7522RuleBasedBreakIterator14getBinaryRulesERj(ptr nocapture noundef nonnull readonly align 8 dereferenceable(745) %this, ptr nocapture noundef nonnull writeonly align 4 dereferenceable(4) %length) unnamed_addr #10 align 2 {
entry:
  store i32 0, ptr %length, align 4
  %fData = getelementptr inbounds i8, ptr %this, i64 624
  %0 = load ptr, ptr %fData, align 8
  %cmp.not = icmp eq ptr %0, null
  br i1 %cmp.not, label %if.end, label %if.then

if.then:                                          ; preds = %entry
  %1 = load ptr, ptr %0, align 8
  %fLength = getelementptr inbounds i8, ptr %1, i64 8
  %2 = load i32, ptr %fLength, align 4
  store i32 %2, ptr %length, align 4
  br label %if.end

if.end:                                           ; preds = %if.then, %entry
  %retPtr.0 = phi ptr [ %1, %if.then ], [ null, %entry ]
  ret ptr %retPtr.0
}